; ModuleID = 'source-C-CXX/11/1100.c'
source_filename = "source-C-CXX/11/1100.c"
target datalayout = "e-m:e-p270:32:32-p271:32:32-p272:64:64-i64:64-f80:128-n8:16:32:64-S128"
target triple = "x86_64-pc-linux-gnu"

@.str = private unnamed_addr constant [3 x i8] c"%d\00", align 1
@.str.1 = private unnamed_addr constant [4 x i8] c"%d\0A\00", align 1

; Function Attrs: nofree nounwind sspstrong uwtable
define dso_local i32 @main() local_unnamed_addr #0 {
  %1 = alloca [16 x i32], align 16
  %2 = bitcast [16 x i32]* %1 to i8*
  call void @llvm.lifetime.start.p0i8(i64 64, i8* nonnull %2) #4
  br label %3

3:                                                ; preds = %90, %0
  %4 = phi i32 [ 0, %0 ], [ %92, %90 ]
  %5 = sext i32 %4 to i64
  %6 = getelementptr inbounds [16 x i32], [16 x i32]* %1, i64 0, i64 %5
  %7 = call i32 (i8*, ...) @__isoc99_scanf(i8* getelementptr inbounds ([3 x i8], [3 x i8]* @.str, i64 0, i64 0), i32* nonnull %6)
  %8 = load i32, i32* %6, align 4, !tbaa !5
  switch i32 %8, label %90 [
    i32 -1, label %93
    i32 0, label %9
  ]

9:                                                ; preds = %3
  %10 = icmp sgt i32 %4, 0
  br i1 %10, label %11, label %87

11:                                               ; preds = %9
  %12 = zext i32 %4 to i64
  br label %17

13:                                               ; preds = %74, %67, %17
  %14 = phi i32 [ %20, %17 ], [ %69, %67 ], [ %84, %74 ]
  %15 = add nuw nsw i64 %19, 1
  %16 = icmp eq i64 %23, %12
  br i1 %16, label %87, label %17, !llvm.loop !9

17:                                               ; preds = %11, %13
  %18 = phi i64 [ 0, %11 ], [ %23, %13 ]
  %19 = phi i64 [ 1, %11 ], [ %15, %13 ]
  %20 = phi i32 [ 0, %11 ], [ %14, %13 ]
  %21 = xor i64 %18, -1
  %22 = add nsw i64 %21, %12
  %23 = add nuw nsw i64 %18, 1
  %24 = icmp slt i64 %23, %5
  br i1 %24, label %25, label %13

25:                                               ; preds = %17
  %26 = getelementptr inbounds [16 x i32], [16 x i32]* %1, i64 0, i64 %18
  %27 = load i32, i32* %26, align 4, !tbaa !5
  %28 = shl nsw i32 %27, 1
  %29 = icmp ult i64 %22, 8
  br i1 %29, label %71, label %30

30:                                               ; preds = %25
  %31 = and i64 %22, -8
  %32 = add i64 %19, %31
  %33 = insertelement <4 x i32> <i32 poison, i32 0, i32 0, i32 0>, i32 %20, i32 0
  %34 = insertelement <4 x i32> poison, i32 %27, i32 0
  %35 = shufflevector <4 x i32> %34, <4 x i32> poison, <4 x i32> zeroinitializer
  %36 = insertelement <4 x i32> poison, i32 %27, i32 0
  %37 = shufflevector <4 x i32> %36, <4 x i32> poison, <4 x i32> zeroinitializer
  %38 = insertelement <4 x i32> poison, i32 %28, i32 0
  %39 = shufflevector <4 x i32> %38, <4 x i32> poison, <4 x i32> zeroinitializer
  %40 = insertelement <4 x i32> poison, i32 %28, i32 0
  %41 = shufflevector <4 x i32> %40, <4 x i32> poison, <4 x i32> zeroinitializer
  br label %42

42:                                               ; preds = %42, %30
  %43 = phi i64 [ 0, %30 ], [ %65, %42 ]
  %44 = phi <4 x i32> [ %33, %30 ], [ %63, %42 ]
  %45 = phi <4 x i32> [ zeroinitializer, %30 ], [ %64, %42 ]
  %46 = add i64 %19, %43
  %47 = getelementptr inbounds [16 x i32], [16 x i32]* %1, i64 0, i64 %46
  %48 = bitcast i32* %47 to <4 x i32>*
  %49 = load <4 x i32>, <4 x i32>* %48, align 4, !tbaa !5
  %50 = getelementptr inbounds i32, i32* %47, i64 4
  %51 = bitcast i32* %50 to <4 x i32>*
  %52 = load <4 x i32>, <4 x i32>* %51, align 4, !tbaa !5
  %53 = shl nsw <4 x i32> %49, <i32 1, i32 1, i32 1, i32 1>
  %54 = shl nsw <4 x i32> %52, <i32 1, i32 1, i32 1, i32 1>
  %55 = icmp eq <4 x i32> %35, %53
  %56 = icmp eq <4 x i32> %37, %54
  %57 = icmp eq <4 x i32> %39, %49
  %58 = icmp eq <4 x i32> %41, %52
  %59 = select <4 x i1> %55, <4 x i1> <i1 true, i1 true, i1 true, i1 true>, <4 x i1> %57
  %60 = select <4 x i1> %56, <4 x i1> <i1 true, i1 true, i1 true, i1 true>, <4 x i1> %58
  %61 = zext <4 x i1> %59 to <4 x i32>
  %62 = zext <4 x i1> %60 to <4 x i32>
  %63 = add <4 x i32> %44, %61
  %64 = add <4 x i32> %45, %62
  %65 = add nuw i64 %43, 8
  %66 = icmp eq i64 %65, %31
  br i1 %66, label %67, label %42, !llvm.loop !11

67:                                               ; preds = %42
  %68 = add <4 x i32> %64, %63
  %69 = call i32 @llvm.vector.reduce.add.v4i32(<4 x i32> %68)
  %70 = icmp eq i64 %22, %31
  br i1 %70, label %13, label %71

71:                                               ; preds = %25, %67
  %72 = phi i64 [ %19, %25 ], [ %32, %67 ]
  %73 = phi i32 [ %20, %25 ], [ %69, %67 ]
  br label %74

74:                                               ; preds = %71, %74
  %75 = phi i64 [ %85, %74 ], [ %72, %71 ]
  %76 = phi i32 [ %84, %74 ], [ %73, %71 ]
  %77 = getelementptr inbounds [16 x i32], [16 x i32]* %1, i64 0, i64 %75
  %78 = load i32, i32* %77, align 4, !tbaa !5
  %79 = shl nsw i32 %78, 1
  %80 = icmp eq i32 %27, %79
  %81 = icmp eq i32 %28, %78
  %82 = select i1 %80, i1 true, i1 %81
  %83 = zext i1 %82 to i32
  %84 = add nsw i32 %76, %83
  %85 = add nuw nsw i64 %75, 1
  %86 = icmp eq i64 %85, %12
  br i1 %86, label %13, label %74, !llvm.loop !13

87:                                               ; preds = %13, %9
  %88 = phi i32 [ 0, %9 ], [ %14, %13 ]
  %89 = call i32 (i8*, ...) @printf(i8* nonnull dereferenceable(1) getelementptr inbounds ([4 x i8], [4 x i8]* @.str.1, i64 0, i64 0), i32 %88)
  br label %90

90:                                               ; preds = %3, %87
  %91 = phi i32 [ -1, %87 ], [ %4, %3 ]
  %92 = add nsw i32 %91, 1
  br label %3

93:                                               ; preds = %3
  call void @llvm.lifetime.end.p0i8(i64 64, i8* nonnull %2) #4
  ret i32 0
}

; Function Attrs: argmemonly mustprogress nofree nosync nounwind willreturn
declare void @llvm.lifetime.start.p0i8(i64 immarg, i8* nocapture) #1

; Function Attrs: nofree nounwind
declare noundef i32 @__isoc99_scanf(i8* nocapture noundef readonly, ...) local_unnamed_addr #2

; Function Attrs: nofree nounwind
declare noundef i32 @printf(i8* nocapture noundef readonly, ...) local_unnamed_addr #2

; Function Attrs: argmemonly mustprogress nofree nosync nounwind willreturn
declare void @llvm.lifetime.end.p0i8(i64 immarg, i8* nocapture) #1

; Function Attrs: nofree nosync nounwind readnone willreturn
declare i32 @llvm.vector.reduce.add.v4i32(<4 x i32>) #3


!llvm.module.flags = !{!0, !1, !2, !3}
!llvm.ident = !{!4}

!0 = !{i32 1, !"wchar_size", i32 4}
!1 = !{i32 7, !"PIC Level", i32 2}
!2 = !{i32 7, !"PIE Level", i32 2}
!3 = !{i32 7, !"uwtable", i32 1}
!4 = !{!"clang version 13.0.0"}
!5 = !{!6, !6, i64 0}
!6 = !{!"int", !7, i64 0}
!7 = !{!"omnipotent char", !8, i64 0}
!8 = !{!"Simple C/C++ TBAA"}
!9 = distinct !{!9, !10}
!10 = !{!"llvm.loop.mustprogress"}
!11 = distinct !{!11, !10, !12}
!12 = !{!"llvm.loop.isvectorized", i32 1}
!13 = distinct !{!13, !10, !14, !12}
!14 = !{!"llvm.loop.unroll.runtime.disable"}
